target datalayout = "e-m:e-p270:32:32-p271:32:32-p272:64:64-i64:64-i128:128-f80:128-n8:16:32:64-S128"
target triple = "x86_64-unknown-linux-gnu"

%struct.DeviceClass = type { %struct.ObjectClass, [1 x i64], ptr, ptr, ptr, i8, i8, ptr, ptr, ptr, ptr, ptr }
%struct.ObjectClass = type { ptr, ptr, [4 x ptr], [4 x ptr], ptr, ptr }
%struct.TPCI200State = type { %struct.PCIDevice, %struct.IPackBus, %struct.MemoryRegion, %struct.MemoryRegion, %struct.MemoryRegion, %struct.MemoryRegion, %struct.MemoryRegion, %struct.MemoryRegion, [3 x i8], [4 x i8], i16, i8 }
%struct.PCIDevice = type { %struct.DeviceState, i8, i8, ptr, ptr, ptr, ptr, ptr, i32, %struct.PCIReqIDCache, [64 x i8], [7 x %struct.PCIIORegion], %struct.AddressSpace, %struct.MemoryRegion, %struct.MemoryRegion, ptr, ptr, [3 x ptr], i8, i8, i32, i8, i32, ptr, ptr, ptr, ptr, ptr, ptr, %struct.MemoryRegion, %struct.MemoryRegion, %struct.MemoryRegion, ptr, i8, i32, i8, %struct.PCIExpressDevice, ptr, ptr, i32, i8, %struct.MemoryRegion, i32, ptr, ptr, ptr, ptr, ptr, i32 }
%struct.DeviceState = type { %struct.Object, ptr, ptr, i8, i8, i64, ptr, i32, i8, ptr, %struct.NamedGPIOListHead, %struct.NamedClockListHead, %struct.BusStateHead, i32, i32, i32, %struct.ResettableState, ptr, %struct.MemReentrancyGuard }
%struct.Object = type { ptr, ptr, ptr, i32, ptr }
%struct.NamedGPIOListHead = type { ptr }
%struct.NamedClockListHead = type { ptr }
%struct.BusStateHead = type { ptr }
%struct.ResettableState = type { i32, i8, i8 }
%struct.MemReentrancyGuard = type { i8 }
%struct.PCIReqIDCache = type { ptr, i32 }
%struct.PCIIORegion = type { i64, i64, i8, ptr, ptr }
%struct.AddressSpace = type { %struct.rcu_head, ptr, ptr, ptr, i32, i32, ptr, %union.anon, %union.anon.0 }
%struct.rcu_head = type { ptr, ptr }
%union.anon = type { %struct.QTailQLink }
%struct.QTailQLink = type { ptr, ptr }
%union.anon.0 = type { %struct.QTailQLink }
%struct.PCIExpressDevice = type { i8, i8, i8, i16, %struct.PCIEAERLog, i16, i16, i16, %struct.PCIESriovPF, %struct.PCIESriovVF }
%struct.PCIEAERLog = type { i16, i16, ptr }
%struct.PCIESriovPF = type { i16, [7 x i8], ptr, ptr }
%struct.PCIESriovVF = type { ptr, i16 }
%struct.IPackBus = type { %struct.BusState, i8, i8, ptr }
%struct.BusState = type { %struct.Object, ptr, ptr, ptr, i32, i8, i8, i32, %union.BusChildHead, %struct.BusStateEntry, %struct.ResettableState }
%union.BusChildHead = type { %struct.QTailQLink }
%struct.BusStateEntry = type { ptr, ptr }
%struct.MemoryRegion = type { %struct.Object, i8, i8, i8, i8, i8, i8, i8, i8, i8, i8, ptr, ptr, ptr, ptr, ptr, ptr, i32, i128, i64, ptr, i64, i8, i8, i8, i8, i8, ptr, i64, i32, %union.anon.1, %union.anon.2, %union.anon.3, ptr, i32, ptr, ptr, i8 }
%union.anon.1 = type { %struct.QTailQLink }
%union.anon.2 = type { %struct.QTailQLink }
%union.anon.3 = type { %struct.QTailQLink }
%struct.IPackDeviceClass = type { %struct.DeviceClass, ptr, ptr, ptr, ptr, ptr, ptr, ptr, ptr, ptr, ptr, ptr, ptr }

@.str.14 = private unnamed_addr constant [13 x i8] c"ipack-device\00", align 1
@.str.15 = private unnamed_addr constant [103 x i8] c"/home/dtcxzyw/WorkSpace/Projects/compilers/llvm-opt-benchmark/bench/qemu/qemu/include/hw/ipack/ipack.h\00", align 1
@__func__.IPACK_DEVICE_GET_CLASS = private unnamed_addr constant [23 x i8] c"IPACK_DEVICE_GET_CLASS\00", align 1

; Function Attrs: nounwind sspstrong uwtable
define internal ptr @IPACK_DEVICE_GET_CLASS(ptr noundef %obj) #0 {
entry:
  %obj.addr = alloca ptr, align 8
  store ptr %obj, ptr %obj.addr, align 8
  %0 = load ptr, ptr %obj.addr, align 8
  %call = call ptr @object_get_class(ptr noundef %0)
  %call1 = call ptr @object_class_dynamic_cast_assert(ptr noundef %call, ptr noundef @.str.14, ptr noundef @.str.15, i32 noundef 34, ptr noundef @__func__.IPACK_DEVICE_GET_CLASS)
  ret ptr %call1
}

; Function Attrs: nounwind sspstrong uwtable
define internal i64 @adjust_value(i1 noundef zeroext %big_endian, ptr noundef %val, i32 noundef %size) #0 {
entry:
  %big_endian.addr = alloca i8, align 1
  %val.addr = alloca ptr, align 8
  %size.addr = alloca i32, align 4
  %frombool = zext i1 %big_endian to i8
  store i8 %frombool, ptr %big_endian.addr, align 1
  store ptr %val, ptr %val.addr, align 8
  store i32 %size, ptr %size.addr, align 4
  %0 = load i8, ptr %big_endian.addr, align 1
  %tobool = trunc i8 %0 to i1
  br i1 %tobool, label %land.lhs.true, label %if.end

land.lhs.true:                                    ; preds = %entry
  %1 = load i32, ptr %size.addr, align 4
  %cmp = icmp eq i32 %1, 2
  br i1 %cmp, label %if.then, label %if.end

if.then:                                          ; preds = %land.lhs.true
  %2 = load ptr, ptr %val.addr, align 8
  %3 = load i64, ptr %2, align 8
  %conv = trunc i64 %3 to i16
  %4 = call i16 @llvm.bswap.i16(i16 %conv)
  %conv1 = zext i16 %4 to i64
  %5 = load ptr, ptr %val.addr, align 8
  store i64 %conv1, ptr %5, align 8
  br label %if.end

if.end:                                           ; preds = %if.then, %land.lhs.true, %entry
  %6 = load ptr, ptr %val.addr, align 8
  %7 = load i64, ptr %6, align 8
  ret i64 %7
}

; Function Attrs: nounwind sspstrong uwtable
define internal void @adjust_addr(i1 noundef zeroext %big_endian, ptr noundef %addr, i32 noundef %size) #0 {
entry:
  %big_endian.addr = alloca i8, align 1
  %addr.addr = alloca ptr, align 8
  %size.addr = alloca i32, align 4
  %frombool = zext i1 %big_endian to i8
  store i8 %frombool, ptr %big_endian.addr, align 1
  store ptr %addr, ptr %addr.addr, align 8
  store i32 %size, ptr %size.addr, align 4
  %0 = load i8, ptr %big_endian.addr, align 1
  %tobool = trunc i8 %0 to i1
  br i1 %tobool, label %land.lhs.true, label %if.end

land.lhs.true:                                    ; preds = %entry
  %1 = load i32, ptr %size.addr, align 4
  %cmp = icmp eq i32 %1, 1
  br i1 %cmp, label %if.then, label %if.end

if.then:                                          ; preds = %land.lhs.true
  %2 = load ptr, ptr %addr.addr, align 8
  %3 = load i64, ptr %2, align 8
  %xor = xor i64 %3, 1
  store i64 %xor, ptr %2, align 8
  br label %if.end

if.end:                                           ; preds = %if.then, %land.lhs.true, %entry
  ret void
}

; Function Attrs: nounwind sspstrong uwtable
define internal void @tpci200_write_las2(ptr noundef %opaque, i64 noundef %addr, i64 noundef %val, i32 noundef %size) #0 {
entry:
  %opaque.addr = alloca ptr, align 8
  %addr.addr = alloca i64, align 8
  %val.addr = alloca i64, align 8
  %size.addr = alloca i32, align 4
  %s = alloca ptr, align 8
  %ip = alloca ptr, align 8
  %ip_n = alloca i32, align 4
  %offset = alloca i32, align 4
  %k = alloca ptr, align 8
  store ptr %opaque, ptr %opaque.addr, align 8
  store i64 %addr, ptr %addr.addr, align 8
  store i64 %val, ptr %val.addr, align 8
  store i32 %size, ptr %size.addr, align 4
  %0 = load ptr, ptr %opaque.addr, align 8
  store ptr %0, ptr %s, align 8
  %1 = load ptr, ptr %s, align 8
  %big_endian = getelementptr inbounds %struct.TPCI200State, ptr %1, i32 0, i32 8
  %arrayidx = getelementptr [3 x i8], ptr %big_endian, i64 0, i64 2
  %2 = load i8, ptr %arrayidx, align 2
  %tobool = trunc i8 %2 to i1
  %3 = load i32, ptr %size.addr, align 4
  call void @adjust_addr(i1 noundef zeroext %tobool, ptr noundef %addr.addr, i32 noundef %3)
  %4 = load ptr, ptr %s, align 8
  %big_endian1 = getelementptr inbounds %struct.TPCI200State, ptr %4, i32 0, i32 8
  %arrayidx2 = getelementptr [3 x i8], ptr %big_endian1, i64 0, i64 2
  %5 = load i8, ptr %arrayidx2, align 2
  %tobool3 = trunc i8 %5 to i1
  %6 = load i32, ptr %size.addr, align 4
  %call = call i64 @adjust_value(i1 noundef zeroext %tobool3, ptr noundef %val.addr, i32 noundef %6)
  %7 = load i64, ptr %addr.addr, align 8
  %shr = lshr i64 %7, 23
  %conv = trunc i64 %shr to i32
  store i32 %conv, ptr %ip_n, align 4
  %8 = load i64, ptr %addr.addr, align 8
  %and = and i64 %8, 8388607
  %conv4 = trunc i64 %and to i32
  store i32 %conv4, ptr %offset, align 4
  %9 = load ptr, ptr %s, align 8
  %bus = getelementptr inbounds %struct.TPCI200State, ptr %9, i32 0, i32 1
  %10 = load i32, ptr %ip_n, align 4
  %call5 = call ptr @ipack_device_find(ptr noundef %bus, i32 noundef %10)
  store ptr %call5, ptr %ip, align 8
  %11 = load ptr, ptr %ip, align 8
  %cmp = icmp eq ptr %11, null
  br i1 %cmp, label %if.then, label %if.else

if.then:                                          ; preds = %entry
  br label %do.body

do.body:                                          ; preds = %if.then
  br label %do.end

do.end:                                           ; preds = %do.body
  br label %if.end12

if.else:                                          ; preds = %entry
  %12 = load ptr, ptr %ip, align 8
  %call7 = call ptr @IPACK_DEVICE_GET_CLASS(ptr noundef %12)
  store ptr %call7, ptr %k, align 8
  %13 = load ptr, ptr %k, align 8
  %mem_write16 = getelementptr inbounds %struct.IPackDeviceClass, ptr %13, i32 0, i32 10
  %14 = load ptr, ptr %mem_write16, align 8
  %tobool8 = icmp ne ptr %14, null
  br i1 %tobool8, label %if.then9, label %if.end

if.then9:                                         ; preds = %if.else
  %15 = load ptr, ptr %k, align 8
  %mem_write1610 = getelementptr inbounds %struct.IPackDeviceClass, ptr %15, i32 0, i32 10
  %16 = load ptr, ptr %mem_write1610, align 8
  %17 = load ptr, ptr %ip, align 8
  %18 = load i32, ptr %offset, align 4
  %19 = load i64, ptr %val.addr, align 8
  %conv11 = trunc i64 %19 to i16
  call void %16(ptr noundef %17, i32 noundef %18, i16 noundef zeroext %conv11)
  br label %if.end

if.end:                                           ; preds = %if.then9, %if.else
  br label %if.end12

if.end12:                                         ; preds = %if.end, %do.end
  ret void
}