; Function Attrs: nounwind sspstrong uwtable
define internal void @tpci200_write_las2(ptr noundef %opaque, i64 noundef %addr, i64 noundef %val, i32 noundef %size) #0 {
entry:
  %arrayidx = getelementptr i8, ptr %opaque, i64 4386
  %0 = load i8, ptr %arrayidx, align 2
  %tobool = trunc i8 %0 to i1
  %cmp.i = icmp eq i32 %size, 1
  %or.cond.i = and i1 %cmp.i, %tobool
  br i1 %or.cond.i, label %adjust_addr.exit.thread, label %adjust_addr.exit

adjust_addr.exit.thread:                          ; preds = %entry
  %xor.i = xor i64 %addr, 1
  br label %adjust_value.exit

adjust_addr.exit:                                 ; preds = %entry
  %cmp.i7 = icmp eq i32 %size, 2
  %or.cond.i8 = and i1 %cmp.i7, %tobool
  br i1 %or.cond.i8, label %if.then.i9, label %adjust_value.exit

if.then.i9:                                       ; preds = %adjust_addr.exit
  %conv.i = trunc i64 %val to i16
  %1 = tail call i16 @llvm.bswap.i16(i16 %conv.i)
  %conv1.i = zext i16 %1 to i64
  br label %adjust_value.exit

adjust_value.exit:                                ; preds = %adjust_addr.exit.thread, %adjust_addr.exit, %if.then.i9
  %addr.addr.015 = phi i64 [ %addr, %if.then.i9 ], [ %addr, %adjust_addr.exit ], [ %xor.i, %adjust_addr.exit.thread ]
  %val.addr.0 = phi i64 [ %conv1.i, %if.then.i9 ], [ %val, %adjust_addr.exit ], [ %val, %adjust_addr.exit.thread ]
  %shr = lshr i64 %addr.addr.015, 23
  %conv = trunc i64 %shr to i32
  %2 = trunc i64 %addr.addr.015 to i32
  %conv4 = and i32 %2, 8388607
  %bus = getelementptr inbounds nuw i8, ptr %opaque, i64 2608
  %call5 = tail call ptr @ipack_device_find(ptr noundef nonnull %bus, i32 noundef %conv) #6
  %cmp = icmp eq ptr %call5, null
  br i1 %cmp, label %if.end12, label %if.else

if.else:                                          ; preds = %adjust_value.exit
  %call.i = tail call ptr @object_get_class(ptr noundef nonnull %call5) #6
  %call1.i = tail call ptr @object_class_dynamic_cast_assert(ptr noundef %call.i, ptr noundef nonnull @.str.14, ptr noundef nonnull @.str.15, i32 noundef 34, ptr noundef nonnull @__func__.IPACK_DEVICE_GET_CLASS) #6
  %mem_write16 = getelementptr inbounds nuw i8, ptr %call1.i, i64 248
  %3 = load ptr, ptr %mem_write16, align 8
  %tobool8.not = icmp eq ptr %3, null
  br i1 %tobool8.not, label %if.end12, label %if.then9

if.then9:                                         ; preds = %if.else
  %conv11 = trunc i64 %val.addr.0 to i16
  tail call void %3(ptr noundef nonnull %call5, i32 noundef %conv4, i16 noundef zeroext %conv11) #6
  br label %if.end12

if.end12:                                         ; preds = %if.else, %if.then9, %adjust_value.exit
  ret void
}